target datalayout = "e-m:e-p270:32:32-p271:32:32-p272:64:64-i64:64-i128:128-f80:128-n8:16:32:64-S128"
target triple = "x86_64-pc-linux-gnu"

%struct.ossl_init_settings_st = type { ptr, ptr, i64 }

; Function Attrs: nounwind uwtable
define ptr @OPENSSL_INIT_new() #0 {
  %1 = alloca ptr, align 8
  %2 = alloca ptr, align 8
  %3 = alloca i32, align 4
  call void @llvm.lifetime.start.p0(i64 8, ptr %2) #8
  %4 = call noalias ptr @malloc(i64 noundef 24) #10
  store ptr %4, ptr %2, align 8, !tbaa !51
  %5 = load ptr, ptr %2, align 8, !tbaa !51
  %6 = icmp eq ptr %5, null
  br i1 %6, label %7, label %8

7:                                                ; preds = %0
  store ptr null, ptr %1, align 8
  store i32 1, ptr %3, align 4
  br label %13

8:                                                ; preds = %0
  %9 = load ptr, ptr %2, align 8, !tbaa !51
  call void @llvm.memset.p0.i64(ptr align 8 %9, i8 0, i64 24, i1 false)
  %10 = load ptr, ptr %2, align 8, !tbaa !51
  %11 = getelementptr inbounds nuw %struct.ossl_init_settings_st, ptr %10, i32 0, i32 2
  store i64 50, ptr %11, align 8, !tbaa !53
  %12 = load ptr, ptr %2, align 8, !tbaa !51
  store ptr %12, ptr %1, align 8
  store i32 1, ptr %3, align 4
  br label %13

13:                                               ; preds = %8, %7
  call void @llvm.lifetime.end.p0(i64 8, ptr %2) #8
  %14 = load ptr, ptr %1, align 8
  ret ptr %14
}