; Function Attrs: mustprogress nofree nounwind willreturn memory(write, argmem: none, inaccessiblemem: readwrite) uwtable
define noalias noundef ptr @OPENSSL_INIT_new() local_unnamed_addr #7 {
  %calloc = tail call dereferenceable_or_null(24) ptr @calloc(i64 1, i64 24)
  %1 = icmp eq ptr %calloc, null
  br i1 %1, label %4, label %2

2:                                                ; preds = %0
  %3 = getelementptr inbounds nuw i8, ptr %calloc, i64 16
  store i64 50, ptr %3, align 8, !tbaa !35
  br label %4

4:                                                ; preds = %0, %2
  ret ptr %calloc
}